(dp1
S'4f38d69d504a96c66452f26c63b4d10f0b3e4389'
p2
(dp3
S'nameshash'
p4
S'741a592342546a11676d2e5a8fc37a6c2e9b95f9'
p5
sS'dirname'
p6
S'/Users/rabshakeh/Cryptobox2/.dropbox.cache/2013-05-25'
p7
sS'names'
p8
(lp9
S'.1password (deleted 5ca32048ed473b079373ed3428f87c91).keys'
p10
aS'.1password (deleted cebc15762e9dbfcc35f7f7db5db88e16).keys'
p11
aS'.password (deleted 7d75c82b8ed573350109c97d58bb0a1b).hint'
p12
aS'.ws.agile.1Password (deleted 9b2cd88320f70f051b1ef05b65abdb6e).settings'
p13
aS'0103086125E2D56F0479B812F6B174A3 (deleted 3075efe4082e74a4a9e9b87b4e719f46).1password'
p14
aS'02A83A11947EA24131363DF13959574D (deleted 62524edbe630ab6d40f3409da8e84692).1password'
p15
aS'0623B95150864A0BAA47441B4DE0F7C3 (deleted 45779a6a7f91442dd0f9a2bf6551a473).1password'
p16
aS'0669EAE6131ED80B6A35706A05A688F3 (deleted 6d55ff88fa4a112a6c2f50c21e9f5fc2).1password'
p17
aS'06D7765559E64A049FB7459022D84B3D (deleted 1e912f3d59786374762494c7b0f4a0c6)'
p18
aS'06D7765559E64A049FB7459022D84B3D (deleted dcde50afca6089a0efb72b1997e8719f).def'
p19
aS'06D7765559E64A049FB7459022D84B3D (deleted ddfb98a2c8bd33bcd26678cd4ca56699).icn'
p20
aS'0BD0A11F52E8201218409FF9D9E29766 (deleted 6c36610c782fcd4494728deeba23ef6b).1password'
p21
aS'0DA0377FEAE14766947737F13ABCCF56 (deleted 2cfa8f38942e0dc2d1033ea9b051a265).1password'
p22
aS'0EC1CDB0AA970E37D99479ABAD52FA28 (deleted 0f499d360dcdab992c8c6a4790fd2655).1password'
p23
aS'0FCC5D667C294E238BE7B434C46BF349 (deleted ce9a207c1c6eb053e1706bfa57b0f86d).1password'
p24
aS'1088AC813CC74E069DC8E783B02D801A (deleted 5b66a3eb1a55f260dda88b564568ee46).1password'
p25
aS'12448F5116134E00B6782579C9501966 (deleted 2ced404d92bb748418936a629ac5ba62).1password'
p26
aS'1828205009FE4A6D0D6507574C1B74AD (deleted 3253e0b4151ec1267d2a720a37d0fe8f).1password'
p27
aS'1B2242FD4FDF4A4AB5E15E5CF0583924 (deleted 4ba47dda65c05e7e65bce7d35621f397).1password'
p28
aS'1B9331A9CFBEA50156F392A3CE41D23C (deleted 955eaa85976e7ea529119203406ed94b).1password'
p29
aS'1BF5EC8798744ECBBF7F3231583D550F (deleted e5c3c5bd9cb6dcf5628a539804426c63).1password'
p30
aS'1C6AE177AE04403BA4CE98028FD1FC17 (deleted 3179dd90e622f07e9030c91eb919b4cf).1password'
p31
aS'1FD5FA41875443939B6C7721774588A8 (deleted 4348d6eb6c71c5c60d2f6bd01c412a5e)'
p32
aS'1FD5FA41875443939B6C7721774588A8 (deleted ad13b7ed07ac9b3895ed4609b88b5b32).1password'
p33
aS'1FD5FA41875443939B6C7721774588A8 (deleted ae50cffa8462f01a947f8017db460dba).def'
p34
aS'1FD5FA41875443939B6C7721774588A8 (deleted af1f5263402e8cd596c9488e842d9808).def'
p35
aS'1FD5FA41875443939B6C7721774588A8 (deleted d592a5564eda83f842665535fbc14ec8)'
p36
aS'1FD5FA41875443939B6C7721774588A8 (deleted dcdb36304500a5b2c1d97e33197cfc88).def'
p37
aS'1FD5FA41875443939B6C7721774588A8 (deleted eef1530be788ba33c12b08e585534d38)'
p38
aS'1Password (1) (deleted ed9e66e30d89662c55914d174b39290a).html'
p39
aS'1Password (2) (deleted cbdb06fc5a0c176925a5a3d2a848e3cf).html'
p40
aS'1Password (3) (deleted d102e596636858310c766a84c67ac4c6).html'
p41
aS'1Password (4) (deleted 81dd73530f49926b35baea189ee52d3b).html'
p42
aS'1Password (5) (deleted dd6bb88dc77bbe776626e108be16221d).html'
p43
aS'1Password (6) (deleted 7a0aaf5bde806af487bc2f2e20dfb1b4).html'
p44
aS'1Password (7) (deleted 8b004b8e526040d766a83c7ab06154db).html'
p45
aS'1Password (8) (deleted 07b74f25c5cd84cf5b1875541646648d).html'
p46
aS'1Password (deleted 49f4ecb5030d95b682d2652c9687be6e).html'
p47
aS'1Password (deleted 645a5f81fe8933d679349ac9298571c0).html'
p48
aS'1password (deleted 8ef52c6a84c3ff6f13e08bb71b34578b).keys'
p49
aS'1password (deleted b5bcdeb802efc913f1d486825b7af1f7).keys'
p50
aS'20152A006431CA86B3F51703308FAA88 (deleted e25948ca32637bfe6b357d96da742b83).1password'
p51
aS'2398A0EF8B9D4A71AFE20F9CE2585BA4 (deleted 2a79df8439676936374c2b9cb9dc4fa4).1password'
p52
aS'244A6430CA754FCEA2E5F00F3F593BAD (deleted 3efd587fbf7c56be693c9e3b2a7c83c1).1password'
p53
aS'24760B767885451899E4EA925AC6098D (deleted b166752de70dbdb1503aa2b5eb3da563).1password'
p54
aS'24E57CF37587F4046386AE490E46CD95 (deleted 23eba41b8bfe1b94a376481e2d5f9401).1password'
p55
aS'2585D1924213497EA33A8F52E5C71707 (deleted 31582ef8308dbc01a8d23cb6014322eb).1password'
p56
aS'25D52200BCD54D889E807ACC46F0F3CD (deleted 1a35365fe18989aaadfc083af22fe74c).1password'
p57
aS'2627D1EE138994C68717F2D33A2CF3A0 (deleted 20536df5808168217b18a3fde145b9a7).1password'
p58
aS'27ED783197E24DEC84323B56CD1B46F3 (deleted 14f2c0220702c84515e725c3677cffc4).1password'
p59
aS'28A531EFA6624460A9E7F32C78667742 (deleted 12fccc0e98ce39bbfc95548ae9ebcda2).def'
p60
aS'28A531EFA6624460A9E7F32C78667742 (deleted 3542b7f8e5c95614acc871ab4b0e3a16).icn'
p61
aS'28A531EFA6624460A9E7F32C78667742 (deleted 8c8f164843be3407b7e002602ba1f21a)'
p62
aS'28F2F881311B47F4BBA929C053C8B3F4 (deleted 7030b82df362a9f3cc42ff0be5b3b51c).1password'
p63
aS'29402A5419F645E2611E6319D9A4E3B4 (deleted f9f0f34dc9326b316e1d5353a41eaae6).1password'
p64
aS'2954C7D33B93426E85868D4A563619FF (deleted b3d73f3b56f34e7cc57690825f248ccd).1password'
p65
aS'29939C2ECC4D433D8C4B8DD60E83817A (deleted 47b62badb6443bded746e1a2379c814a).1password'
p66
aS'2BB19F19B1D062F59F21261D60FBBBAB (deleted b97a444caf26d3dcda2a5478969f714c).1password'
p67
aS'2BF1DABD3532422F8EC7501390300DE9 (deleted 69f645f1ad7bb8e47eb4bfa7fc73eefb).1password'
p68
aS'2CC6E30B1947F5751ACA419F52A4C222 (deleted 8c7a8cb90a9167c3b2fc753ab16e1ede).1password'
p69
aS'2EBC55E9F952FF45E4C1E52CE8DAC570 (deleted 050aaa5dcfefa14ae0f720380385127b).1password'
p70
aS'2FE38533D17494DF7EFBA39F0936047A (deleted e2e4caa0a657bda2cc22589ad96a01e4).1password'
p71
aS'3023320D69D3603EC2B6E95A36CA9E89 (deleted 746b6ea4c080df9f0c9fd311d161b883).1password'
p72
aS'3239E9243594E7A5132DF3F736F11636 (deleted 340817602692b182551c10b0c546e536).1password'
p73
aS'3381C1C2AB2A4C01B8F71D988F08F8EE (deleted 760409e4ef5d570f051c197cc378e252).1password'
p74
aS'354C9A2D28AA40668940AF6FE39F9C18 (deleted 36c1b11fa1b63afa918f8eeefdd49a2a)'
p75
aS'354C9A2D28AA40668940AF6FE39F9C18 (deleted 40aff679ce4a647c8cb1fd5575eae646).def'
p76
aS'354C9A2D28AA40668940AF6FE39F9C18 (deleted 71b65aa5bbd20d2573844256c7f3eb0e).def'
p77
aS'354C9A2D28AA40668940AF6FE39F9C18 (deleted 80781618dee16edcf0c12f9aab01d13a)'
p78
aS'354C9A2D28AA40668940AF6FE39F9C18 (deleted 9008fee1ec5a6f4649ad053b9c1c0630)'
p79
aS'354C9A2D28AA40668940AF6FE39F9C18 (deleted 96302400be6afc65acdcd319f5c9471e).1password'
p80
aS'354C9A2D28AA40668940AF6FE39F9C18 (deleted d1cc42fbbda734582564ed558ef6fb17).def'
p81
aS'366456DE3973D9D087D5B8B0CFF5FCCB (deleted f1a6081948007278875740c0ff6072ae).1password'
p82
aS'368F1DEDD9A5ACBD7DC9B7B91244012D (deleted 246f11c45cef8488c4e6854033ad8d2c).1password'
p83
aS'3C97D8D88C9A7170520A85E4DBD294AE (deleted a4e0932f6b3b48cb4979a870af8b3af2).1password'
p84
aS'3D3658C616B9E6553162EED40956A62F (deleted a000315861b8f7c380f268c119871752).1password'
p85
aS'451E60F2BED07428B722841EA96054B2 (deleted d4d351140bfc1ae1c517fbc82fd60ccc).1password'
p86
aS'46C1215BACD7E37BFA83D815CDBE5EF4 (deleted 471d35ccd5f05f30ae75dc545f169309).1password'
p87
aS'46C1215BACD7E37BFA83D815CDBE5EF4 (deleted aec8842f4a42ed78178684f8d5ba2a06)'
p88
aS'46C1215BACD7E37BFA83D815CDBE5EF4 (deleted bb36de39278a498ad060cf246cd60874).def'
p89
aS'488D295344C4121AB9F6DC0BF909233B (deleted cd2151621b5caf86ada8fc3b4474ac3b).1password'
p90
aS'4BE63734AD8745ACAB3AFDED16062CE6 (deleted c526f893863e3d590f961e3c3417d144).1password'
p91
aS'4CEEB6400EDC4B6E982F942A70937ACF (deleted c9c7b63c022f3db31d80b976deeed2e2).1password'
p92
aS'4E4D901EB3424DCFBF3FCD43E1B62C7F (deleted 47a459703f795c1be912cb469bef56cd).1password'
p93
aS'4EBFA9ECDF684AF2B169B09E6B7B4D7A (deleted b22dea5995b9e274a8e81afa745f811d).1password'
p94
aS'5131E7B41FAFA739C6480AFFC1B00BB2 (deleted b184a1877e3141f7c0e92325c2983368).1password'
p95
aS'5344204F9D8E0F107ADBEA7EC2ED0656 (deleted d98d72b25c46e522918d605272989b31).1password'
p96
aS'53D1779801734DEA880E31FB0EB9E2AE (deleted b9f44a63cbcc8acea1cc662a34857f1e).1password'
p97
aS'54959A4AA96A4B2485D8D6AA12B411B3 (deleted 8237e288b610b671487c9b33eec63066).1password'
p98
aS'55A02184F8B648E4B37C22D29CB932BD (deleted 7bb05d8ec19a22c712d220be997f9ab1).1password'
p99
aS'575C6427D1614C3AA486AC6CFF68E56B (deleted a8dc2b0787382fe12ba2bcce8b41994b).1password'
p100
aS'5B94BDFC9B8945228107796BF36E6CA0 (deleted a09229477e4b6ccd69569f93ec2c15e7).1password'
p101
aS'605E1F390CFD488F95D63B86F84C2515 (deleted ae0f53beb7195ea40d1f6c09413acc00).1password'
p102
aS'61CA1AE9753447BB8BB8CD7548A24986 (deleted 3ef1687c36ce04304fc652b3ee3b50e8).1password'
p103
aS'622249551A934DBE837807B5A81F214C (deleted d1d35c43f2b6d2ed427795ecf7977d1b).1password'
p104
aS'66BF9989E0944783B9CF2ED7293415C5 (deleted 5ddbddc02922c687bf8e46d6cfedacde).1password'
p105
aS'67E5228DDAD8429CAD9ADFBA225EB54E (deleted c427e42a78d87f1e7c3cf0d492400ad7).1password'
p106
aS'67F9ED8EAE1F48619FCBC02DB5A54733 (deleted 01c2322801341faa987b99d4771bfc13).1password'
p107
aS'6D1C412DA4AC47498F50F2B185E3D435 (deleted 60d5c31f8eebd2c519a620bfbbd85d42)'
p108
aS'6D1C412DA4AC47498F50F2B185E3D435 (deleted 6a3d80ad7041861d99a24f995a2ff0f9).1password'
p109
aS'6D1C412DA4AC47498F50F2B185E3D435 (deleted 788363c39a56d984323d7bd71743f655).def'
p110
aS'6D1C412DA4AC47498F50F2B185E3D435 (deleted 7c24d824ddaa2292470b17a0e956d6d9)'
p111
aS'6D1C412DA4AC47498F50F2B185E3D435 (deleted cc85309eb8cacaab8137167b50bf8a83).def'
p112
aS'6D1C412DA4AC47498F50F2B185E3D435 (deleted d2615fb63a4a01be978d90d9051f24d8).def'
p113
aS'6D1C412DA4AC47498F50F2B185E3D435 (deleted fd081436bec33d9a1abf395b35f71764)'
p114
aS'6D4630E82B8446FEB1FA973AAC6C4EF1 (deleted a86691fcdfdc06791e08fa4f30ac3984).1password'
p115
aS'6D9F63395804575D1D2D5A08E7A2D5F4 (deleted 40fc182b97e0c8f639e22e59845bd793).1password'
p116
aS'6DEC6EDB1FB9C091D6304D47898EE0D4 (deleted 9385963a5fe0671d3fd3d7c335afc0e5).1password'
p117
aS'700DA95C60F2A53D4C05134D1FC46AA6 (deleted 8d6d8e5867f6d06105441f336f165ee9).1password'
p118
aS'7019F848C7F8417CAE249D328A2B5845 (deleted 5465dc0f48fc276867f9b535c4375573).def'
p119
aS'7019F848C7F8417CAE249D328A2B5845 (deleted 644639fe386066f46a7bdb079c1b4a59).icn'
p120
aS'7019F848C7F8417CAE249D328A2B5845 (deleted bd97a2801268e278c83f259c38e3ba24)'
p121
aS'7111E280CCFF48E6B7D2900662EA37C8 (deleted 4e6c5b2d7bbe5ad90c33df11e98bc228).1password'
p122
aS'731F956B7F94AC265C4DD91CD297ABD8 (deleted c748d3bc5ab98198e9c5271bb148b203).1password'
p123
aS'76FB85A037BDC6E3B2661D3390EF50A1 (deleted 37a94b553fcb30d15ce6bdd5c63019dd).def'
p124
aS'76FB85A037BDC6E3B2661D3390EF50A1 (deleted 5c2f8725d0fdd9e03d1ec958d460f631).1password'
p125
aS'76FB85A037BDC6E3B2661D3390EF50A1 (deleted ba7f3a273fbad02602c59d873e87b060)'
p126
aS'79DBFF7F38D64911B22BF3CC73EE753F (deleted 6253d9eafb106047ebda282973f8364e).1password'
p127
aS'7A210F8B72C947658C646BB70AEC0B43 (deleted c4af4238896242fa3eb29816c2772c78).1password'
p128
aS'7B4979AEB08B25704CFB03CC439F8B27 (deleted 88921121fb8f17ea0dbf36b925c91776).1password'
p129
aS'7C776B4245F6D5D5B9C721A9B0264306 (deleted 884bc432874bf5112258939bee97ecd0).1password'
p130
aS'7CD75E7755AD0486ED015BD210D5C904 (deleted 05f17c8bdd111e608e6a7d551bcb2499).1password'
p131
aS'819AE4A64CBE6C86B31C9F449F54EC2B (deleted b01b6b61ba894e973640464fad81cdda).1password'
p132
aS'8241284E330949FDB2582862B52747A3 (deleted cf3f402a56fb379efdc7a42ab155a6b6).1password'
p133
aS'82E7282861D2557BDEF730BF8030BD56 (deleted dbf4b734123a7cbba117278b01949d2e).1password'
p134
aS'8362FFAA5F644102BAA9E093CFE3328B (deleted 5a56cd33a33d9f193379843a7ef89c9d).1password'
p135
aS'868C0C69AB1842C0912E3A9CE18030B8 (deleted 5bc12ec9e7bb40f222f4f85910e98e60)'
p136
aS'868C0C69AB1842C0912E3A9CE18030B8 (deleted 7ed85e35eeed36f2a99065a5c8f53f68)'
p137
aS'868C0C69AB1842C0912E3A9CE18030B8 (deleted 8cfb6afe0cdee58516ad16e3695e391e)'
p138
aS'868C0C69AB1842C0912E3A9CE18030B8 (deleted 97eaaa1aa993a745f05d075bd29fdddc).def'
p139
aS'868C0C69AB1842C0912E3A9CE18030B8 (deleted 9dbb76460944e102e8facd4d362978a7).def'
p140
aS'868C0C69AB1842C0912E3A9CE18030B8 (deleted a0dc26c31ae81fb6d83dcfab2b1da8b5).1password'
p141
aS'868C0C69AB1842C0912E3A9CE18030B8 (deleted b68597c54a23dd598e71e5638e4186e8).def'
p142
aS'876D530F7CF34F0DAE38B7C119426B6E (deleted 925a156bec79c919d7f28918366357a6).1password'
p143
aS'895E0C3C546940FDA0C66D66656AB2D6 (deleted a6594f90e4598e0057c93ed4e0eb1221).1password'
p144
aS'8984DDE832A5FBDD791DD7B368605261 (deleted 12c006afaf4d504e50b1beacec4b252a).1password'
p145
aS'8EBFCD02B567ACFA997DAD766C11C3AE (deleted 33fdad974e704078334fc19fcd605ea1).1password'
p146
aS'8F3E11890792793DB53F2713B6F911F1 (deleted f5e386710bb1ff346c676ee3e0ac2668).1password'
p147
aS'8F7E89D9A6DC46E58966196F043FE189 (deleted 34d5046e437fd5151c7a42be2e802b7e).1password'
p148
aS'907EBAAA0F8D4D5B833CA8D0B60040C5 (deleted 04a58039aef24e82526bb4bffef37dec)'
p149
aS'907EBAAA0F8D4D5B833CA8D0B60040C5 (deleted 8ebd5a34c3d340dda035cf46f038f880).1password'
p150
aS'907EBAAA0F8D4D5B833CA8D0B60040C5 (deleted a16d4665fcc20519e32f1fd486d325d5)'
p151
aS'907EBAAA0F8D4D5B833CA8D0B60040C5 (deleted a182f292adc85d01fcc60989862052cc)'
p152
aS'907EBAAA0F8D4D5B833CA8D0B60040C5 (deleted e4651bb365cb93ef924ed38f4cc29105).def'
p153
aS'907EBAAA0F8D4D5B833CA8D0B60040C5 (deleted e88647ea8ef234f2f511db4dc2cadc0a).def'
p154
aS'907EBAAA0F8D4D5B833CA8D0B60040C5 (deleted ffe1e383e52bd81644d916891b8fc1d5).def'
p155
aS'9080040BF92A3E335B34199817B66B41 (deleted 754aac1eb56352cea2d228c1666d2b9a).1password'
p156
aS'91F4977BA33143B6AAAFD5174125E539 (deleted 804282a25ae2c1926fb706f36a392c25).1password'
p157
aS'94EBDCAAEC3E4335B6848C70A2E6501E (deleted 8d4b071a777a385ce2f560378b1e3c8c).1password'
p158
aS'961C33378B51AB4A6171A3D480ADC9A1 (deleted 51f2d7d221049909103875bab9701f6d).1password'
p159
aS'96FAF0187E794E4A888D6EE5DE442B2A (deleted 6a35e374c37c78e9abc20c486eb6ec36).1password'
p160
aS'98AD1CDE601A458589C4FDC70B741662 (deleted 16a436bb5d863bfae9bec1da1bb8fdc0).1password'
p161
aS'98D775C2C8334EF7BDD616E7AF02FB9A (deleted d4d3528b32a28c3a3cce65a98b6e6bf9).1password'
p162
aS'9970544AA6A040B780911E143CC37D17 (deleted 39ef4b336ffc107ea72674150acec779).def'
p163
aS'9970544AA6A040B780911E143CC37D17 (deleted 87ef644eba1f5c1509e6a58ad9d09ccb).def'
p164
aS'9970544AA6A040B780911E143CC37D17 (deleted 9631ad4b01d376d519ccafa9fd0daa5b).1password'
p165
aS'9970544AA6A040B780911E143CC37D17 (deleted a19c8f7e84a26d751d2ac84af5fc1a05)'
p166
aS'9970544AA6A040B780911E143CC37D17 (deleted c873dcf77a6824fe42b547b18185b33d)'
p167
aS'9970544AA6A040B780911E143CC37D17 (deleted d6bc35bee1b8f03a0f4eda8c87aa83d6).def'
p168
aS'9970544AA6A040B780911E143CC37D17 (deleted f345eb25afc9bd09dfe02d4968cf4c64)'
p169
aS'99EAF27574DF72A96D56751DA8DF2EC8 (deleted 16caaf956e62df142b5f1f5ce1bbdfbc).def'
p170
aS'99EAF27574DF72A96D56751DA8DF2EC8 (deleted 8f03c6be099b86fd242abb52a7f9efcd)'
p171
aS'99EAF27574DF72A96D56751DA8DF2EC8 (deleted b6c8a1a7ab8b25294b73c376d1b6d044)'
p172
aS'99EAF27574DF72A96D56751DA8DF2EC8 (deleted e5e1cd8a98fc9b4563eba93d0e3c0227).1password'
p173
aS'99EAF27574DF72A96D56751DA8DF2EC8 (deleted fc78be5a072fa666af8900e776b0ff38).def'
p174
aS'9BB2A5D2769A70E82AD7C66B750EF26C (deleted 025c64ac026e9f36fd3b65f7742e3ef1).1password'
p175
aS'9BE2A4E5C14131B1C7BA6DA5DB262DB0 (deleted c6de6ada2ca0e947a1d8cfc12a812585).1password'
p176
aS'9C7A5F90F22D4D008759AE21BB59B342 (deleted 3b66cb1764360cbc321a7286b8df1c41).1password'
p177
aS'9D546D6F720F424D8EF2E498B154B34F (deleted 06d0df1508559db16da30db8804a7682).1password'
p178
aS'9EED4EEBF4B083784DF0A35FA034D36E (deleted dcaf0a45430e4753a033ad7723e2b001).1password'
p179
aS'9F8A53D4A5734050B2E5C9EE3AD4000A (deleted b5887fd8e510dd6ea0884a86314cdea6).1password'
p180
aS'A16569460E24454DB2BEE73FE2CE43C7 (deleted 17f355647bf2cf70b326c30520b5a22e).def'
p181
aS'A16569460E24454DB2BEE73FE2CE43C7 (deleted 18523f3ac8c5725afbca2a635dff0b1d)'
p182
aS'A16569460E24454DB2BEE73FE2CE43C7 (deleted 4042cdaf8f31d3c317d32ce348df032e).1password'
p183
aS'A16569460E24454DB2BEE73FE2CE43C7 (deleted 774a22bdb1978ef7179bfc06bb1597ab)'
p184
aS'A16569460E24454DB2BEE73FE2CE43C7 (deleted 8cc279e474f402cada3ebca4cf820f96)'
p185
aS'A16569460E24454DB2BEE73FE2CE43C7 (deleted de9539e3ab0fecb7137161f24c2797ec).def'
p186
aS'A16569460E24454DB2BEE73FE2CE43C7 (deleted f26ef82323376da53dc7902cbfa88fc4).def'
p187
aS'A1A4240B87A74F7A9A0E974656EB4298 (deleted 9a38d266c563db13840ff44a1e20e96f).1password'
p188
aS'A2002D1CD341773AE4A931D7DB3D2755 (deleted 8cafc054b93a3ead981489eee54befcb).1password'
p189
aS'A253A4892C3F4AB1BE9ED3FFE4C5D026 (deleted 79ee1f60975539af69e167172a3dd53c).1password'
p190
aS'A284179B0D134EA6B5443E0B01331F0B (deleted 1650393c90386fbc02a4073d279c4f82).1password'
p191
aS'A32E0BA4CCBD4C56B641A83C9BA8A263 (deleted af52d5562555c2482739621664c3995c).icn'
p192
aS'A32E0BA4CCBD4C56B641A83C9BA8A263 (deleted e8009f862ef7dc975ad970ac6ad06a30).def'
p193
aS'A32E0BA4CCBD4C56B641A83C9BA8A263 (deleted ec75b050a99d2a340ea3d0ef21b787eb)'
p194
aS'A629F1EBC0FA48A59AF0D0B1336ABC79 (deleted 7401fffc9aec6f2d13a0e87f9e130d54).1password'
p195
aS'A94F7A8C0E9196BB8FC50262E40127C1 (deleted 53eed6a7a8e41a1e80a970a55914152a).1password'
p196
aS'A96234B5EFC0904F1266590C59C5028E (deleted 3921206d6721336fcd44f73dc8b3bba0).1password'
p197
aS'A9D1CA5135D45E132A73CD6D279CBB19 (deleted bbca3e9e81fe0462424fee025c0ed9bb).1password'
p198
aS'AAC550B2222F4D1892652EB39AB440E1 (deleted 2336f2857c1df6783aee5955348a0f94).1password'
p199
aS'ABC10FB4271DABD6841411F48C7095EC (deleted 1e87d8fedb2718de6bc78793a5f89e2f).1password'
p200
aS'active8 (deleted a1d02779b566992abd1c89b5153cd8ad).dump'
p201
aS'AEFDA168AB6244FC9F0B43A60D8F0381 (deleted 7c7e402a0b6cb51dc7ab674fb3e81f67).1password'
p202
aS'B32A1EF7037AE87E7494AA26024F223D (deleted 9c3b35bbae744e28790df6ddacfa6a13).1password'
p203
aS'B5ECEC22CADB69610907EB49E3E252B5 (deleted 35691b9ef15f3f50cd032590201dd7f3).1password'
p204
aS'B8548B003AB450F793E5B846D3EA6F86 (deleted e6a51e55a4b3fb47b4984c2036f8f981).1password'
p205
aS'B961CC9C56D0585654A94EC1CAAD3489 (deleted 3872ffd029618414ceade767ad44cfc5).1password'
p206
aS'BC8FC904260645DE99EE82F9990B2180 (deleted 1fd510218042d64dcf79fa877418d004)'
p207
aS'BC8FC904260645DE99EE82F9990B2180 (deleted 6e64883ba3d670469dcc67bda53293b7)'
p208
aS'BC8FC904260645DE99EE82F9990B2180 (deleted 6e793df9b06222cd0a1746b3a7275f7b).def'
p209
aS'BC8FC904260645DE99EE82F9990B2180 (deleted 7dbc63728aaa83e6347604c7e142eae2).def'
p210
aS'BC8FC904260645DE99EE82F9990B2180 (deleted 8537bbbe53ab81cc5f0e158f870b5bbb).1password'
p211
aS'BC8FC904260645DE99EE82F9990B2180 (deleted cc97bc16fa2f090eeb3b63b17c7bb82d).def'
p212
aS'BC8FC904260645DE99EE82F9990B2180 (deleted f167d64fa429863cade58c70c010354f)'
p213
aS'BDC73BB778124FDAA6311F69E0A1A475 (deleted 977f50cf545a464d21773923f3a097fe).1password'
p214
aS'BF4B0B1FCF8DA94D2933CCD789F46331 (deleted 406600c857dcddfc80d6b528857797cf).1password'
p215
aS'buildnum (deleted 23323de10b930caa52d3827fd7561578)'
p216
aS'C159F2F126274896A3DE035EC960DDBF (deleted 92be554973c62d37a18ce7080d1e8fdb).1password'
p217
aS'C400B96C166E238A46A245C4DAAC778E (deleted 1b4935774aa4bb2436ec8e58e1b1784c).1password'
p218
aS'C416D435743E9811FC0680D5E5B2F43D (deleted 7361b710525436a2e1db98641e1ff9e4).1password'
p219
aS'C4D184DC2AA544AEBDB396038C585782 (deleted 6b316e3f836b8eaba15f85a830af69a6).1password'
p220
aS'C4DFE3B41B561BDAE78BDDFE5D5B1D77 (deleted e024382cf184b248a35abd90d54ceba5).1password'
p221
aS'C6537FB7F8F49FC7CE5E7AA305B6CC54 (deleted 057476f7a1af24ef2e9b851d197483bf).1password'
p222
aS'C81E44C85BE3AB0BC35782D07A5E0CB6 (deleted 022b94a098bf7d87dab1b78a7cbf1b61).1password'
p223
aS'CA577271788441D2932FA5C8804B0D19 (deleted 475ba2ce26b900b36b38d36eb96c9fef)'
p224
aS'CA577271788441D2932FA5C8804B0D19 (deleted c9898aa9bc1b9b82a58db6184a956ae9).def'
p225
aS'CA577271788441D2932FA5C8804B0D19 (deleted f0a959010871f2e671c6e5da972b1b27).icn'
p226
aS'CA84BECE14AE9AAFAB147AF5C717A440 (deleted c299ebcaa2b8f025549a8d5910a856b1).1password'
p227
aS'CB60C8ED131F456995F9CA7A146846B7 (deleted d6b688725d5696a2109c09e2852bf191).1password'
p228
aS'CD3EE8B99D1912ADBD72922F810A47E2 (deleted 1bae45a8f209326377a1490c9b0365a5).1password'
p229
aS'CEB0DA0213A2FA9449BC2047838F115E (deleted 55c16226f60bb6c2e8f4823ddaa6c6a4).1password'
p230
aS'contents (deleted 15fc6d3ca3318b193a6fb11b8cb82707).js'
p231
aS'D555FB3315124588B7DB15DAC677C853 (deleted 3badbc9c546be40e2e5e494a27d2203f).1password'
p232
aS'D55B9F71B805F3367117210564D33AC8 (deleted a4adc73627685ef333b040ce97a26742).1password'
p233
aS'D56DD00107304DF9922B7C99C7CAE039 (deleted 351d46df64636aaa8182a9af351d38f4).1password'
p234
aS'D6A2FDC7467E0DE9FE1E860798887675 (deleted a6c4bd30a5a4f165248049f4a9ecef54).1password'
p235
aS'D819E34915A14240B84E696C91EEC6E5 (deleted 852b1fd475c8fb4214e5b11c355dbabb).1password'
p236
aS'D8E6FBA2935E430F848545CD4A3119DD (deleted 282e864a04ba025d5237caa884d0e5d3).1password'
p237
aS'D90118BFAE9249FA864E5E63A0A5FEB6 (deleted 5a6447d574fab1a711f15efa8b11f34e).1password'
p238
aS'D90B53ED5E5345CC91AA67A88C150147 (deleted 151180da5c9de126058e538ab2899f25).1password'
p239
aS'D90B53ED5E5345CC91AA67A88C150147 (deleted 3d7fa4ee580a2395c27b187c1b222a0a)'
p240
aS'D90B53ED5E5345CC91AA67A88C150147 (deleted 656a2838c2035caa55f4481226f081a0).def'
p241
aS'D90B53ED5E5345CC91AA67A88C150147 (deleted 98c4bacb0fc5309123ecf111678f1a09).def'
p242
aS'D90B53ED5E5345CC91AA67A88C150147 (deleted a77762a428f63d45d0da2c0cb14a7caf)'
p243
aS'D90B53ED5E5345CC91AA67A88C150147 (deleted b86bd123e08fccade2fcd054267a9dbd)'
p244
aS'D90B53ED5E5345CC91AA67A88C150147 (deleted cee856d5cd509f7915d56f8daa3dcfc2).def'
p245
aS'DA9D54A631E2B268ED785AFE718C24AA (deleted 92d61bfd4d2c56953b99c3167ca481a1).1password'
p246
aS'DB60B25641C55CADEAE560B5DF417CAD (deleted c2d7e9f5ada0ebbe2579abe341d7a6aa).1password'
p247
aS'DBEDC7EC9DA14F2880C75D630FBF9FF9 (deleted 4be4e2f14b9c4aa8cad9a971952206ef).1password'
p248
aS'DE938F62D51FD393CA86F6B31A62E32B (deleted 1767c0c7f9c24d9dcc1d67cdb07b2a1c).def'
p249
aS'DE938F62D51FD393CA86F6B31A62E32B (deleted 6386ad6ad0d63c126b39ae274c815e62).1password'
p250
aS'DE938F62D51FD393CA86F6B31A62E32B (deleted a3728165774a86f57eac3793f348a5c0)'
p251
aS'E0427D1E184B00A0BB6B1EDE6688249B (deleted e3cf4169a865f42f5235f8bc3f8cf44c).1password'
p252
aS'E179D457380F4491B5DDA297D2568272 (deleted 44e47c206f5be89783d6c86ce6346198).1password'
p253
aS'E22D7976C3F041AD8320AF5D3D6EA50D (deleted 904c6f65f341a061a66c0b5d04667a3e).1password'
p254
aS'E2A971E8CCEB493E9206A294BD7DA933 (deleted 0f41b9e65930d3ae7302abf6d95197d8).1password'
p255
aS'E2E07E8F2F854759AB0BD86EB5F1414D (deleted 9807160e0a7754b21304ba8590b2cc60).1password'
p256
aS'E4DE0BDC5846409BBAD304FBAA382729 (deleted 807ea472a325d9c5d66b88beaf79aa56).1password'
p257
aS'E7155E8046D3468585288F1DC24FDE76 (deleted 809b6a44e5070b5d54e330d11b5e2c01).1password'
p258
aS'EADA495585444EBBBFBE1FD1ACD54103 (deleted 9e9a983987aa4bc1da9723446f7d19c0).1password'
p259
aS'EB7E407513654CD1B0E48B3F175D34E0 (deleted 8b716fd8b51f5848ec37009768f472a3).1password'
p260
aS'EE97B9097E6048798D2700453DACA46E (deleted caf1e7a8ba49865533c934d194500378).1password'
p261
aS'EED8421D20C4146878D9E29BD05D9CD3 (deleted 28c86654c23c7f53fa32aaeffb79a779).1password'
p262
aS'encryptionKeys (deleted 2982181da12d9531549684b64752c216).js'
p263
aS'encryptionKeys (deleted c14e40084dac3733ef02af85b98db4d4).js'
p264
aS'F1F0BB168B437ECC1B0F45A9D60D8C72 (deleted 90c66c4f0c2e393de09da4b7fbda630d).1password'
p265
aS'F3343AD1E366A05C9B34231F012CC14F (deleted 9dd84a609c7b8d77519e5ea9e9652109).1password'
p266
aS'F395A5BD627E4127919DB1D4A8B89D7D (deleted 4af38d3c401ee91cfd8be218c52a0d41).1password'
p267
aS'F44FD36C3F094A9D8F8D64F6AD115166 (deleted 4d189b74eb91e863f7a6c4d959d59937).1password'
p268
aS'F4563A6F6CE74EAEF04DF9D545E2B161 (deleted 7551b1b9f7c8cad5324ff3d625063db9).1password'
p269
aS'F5F0FC10D5D24139ADBB99A1E0B1AD0B (deleted 87e57526a33694290c50b1ea91b7d6c8).1password'
p270
aS'F69C2A7B808A97FD5A0B2D9017231AE8 (deleted 6eea9fc7c35d46cb3e808aedc2ab33b7).1password'
p271
aS'F768384F2AB33016ABCACEA5859938D4 (deleted c7a9bce4aa1121c31bce3e814b4a2a66).1password'
p272
aS'F79E5B6CF3B34FE7B105E196D0D5078B (deleted a30e9e38b9955080192af604342edd95).1password'
p273
aS'FC3E98ACA73C4D0CBF8A525F182353C5 (deleted 13fbeb77550773e97c20e19c9a396a18).1password'
p274
aS'FD6CC5E7A5C34E55BDCDED08F280A339 (deleted 5483d80562de3a5a12c8d534a903e9f9)'
p275
aS'FD6CC5E7A5C34E55BDCDED08F280A339 (deleted cf975f3d2f09616d5566446462037896).def'
p276
aS'FD6CC5E7A5C34E55BDCDED08F280A339 (deleted f3b66f6b2baba532aa91a16bf357b58c).icn'
p277
aS'newsletter (deleted d7be172692ac9cb0a637999cb68946a3)'
p278
aS'rmij (deleted 27729d174a482ff70fd108e78e39d421).dump'
p279
aS'test (deleted aa00c0487a80ad050626d7c725face7e).dump'
p280
asS'filenames'
p281
(lp282
S'.1password (deleted 5ca32048ed473b079373ed3428f87c91).keys'
p283
aS'.1password (deleted cebc15762e9dbfcc35f7f7db5db88e16).keys'
p284
aS'.password (deleted 7d75c82b8ed573350109c97d58bb0a1b).hint'
p285
aS'.ws.agile.1Password (deleted 9b2cd88320f70f051b1ef05b65abdb6e).settings'
p286
aS'0103086125E2D56F0479B812F6B174A3 (deleted 3075efe4082e74a4a9e9b87b4e719f46).1password'
p287
aS'02A83A11947EA24131363DF13959574D (deleted 62524edbe630ab6d40f3409da8e84692).1password'
p288
aS'0623B95150864A0BAA47441B4DE0F7C3 (deleted 45779a6a7f91442dd0f9a2bf6551a473).1password'
p289
aS'0669EAE6131ED80B6A35706A05A688F3 (deleted 6d55ff88fa4a112a6c2f50c21e9f5fc2).1password'
p290
aS'06D7765559E64A049FB7459022D84B3D (deleted 1e912f3d59786374762494c7b0f4a0c6)'
p291
aS'06D7765559E64A049FB7459022D84B3D (deleted dcde50afca6089a0efb72b1997e8719f).def'
p292
aS'06D7765559E64A049FB7459022D84B3D (deleted ddfb98a2c8bd33bcd26678cd4ca56699).icn'
p293
aS'0BD0A11F52E8201218409FF9D9E29766 (deleted 6c36610c782fcd4494728deeba23ef6b).1password'
p294
aS'0DA0377FEAE14766947737F13ABCCF56 (deleted 2cfa8f38942e0dc2d1033ea9b051a265).1password'
p295
aS'0EC1CDB0AA970E37D99479ABAD52FA28 (deleted 0f499d360dcdab992c8c6a4790fd2655).1password'
p296
aS'0FCC5D667C294E238BE7B434C46BF349 (deleted ce9a207c1c6eb053e1706bfa57b0f86d).1password'
p297
aS'1088AC813CC74E069DC8E783B02D801A (deleted 5b66a3eb1a55f260dda88b564568ee46).1password'
p298
aS'12448F5116134E00B6782579C9501966 (deleted 2ced404d92bb748418936a629ac5ba62).1password'
p299
aS'1828205009FE4A6D0D6507574C1B74AD (deleted 3253e0b4151ec1267d2a720a37d0fe8f).1password'
p300
aS'1B2242FD4FDF4A4AB5E15E5CF0583924 (deleted 4ba47dda65c05e7e65bce7d35621f397).1password'
p301
aS'1B9331A9CFBEA50156F392A3CE41D23C (deleted 955eaa85976e7ea529119203406ed94b).1password'
p302
aS'1BF5EC8798744ECBBF7F3231583D550F (deleted e5c3c5bd9cb6dcf5628a539804426c63).1password'
p303
aS'1C6AE177AE04403BA4CE98028FD1FC17 (deleted 3179dd90e622f07e9030c91eb919b4cf).1password'
p304
aS'1FD5FA41875443939B6C7721774588A8 (deleted 4348d6eb6c71c5c60d2f6bd01c412a5e)'
p305
aS'1FD5FA41875443939B6C7721774588A8 (deleted ad13b7ed07ac9b3895ed4609b88b5b32).1password'
p306
aS'1FD5FA41875443939B6C7721774588A8 (deleted ae50cffa8462f01a947f8017db460dba).def'
p307
aS'1FD5FA41875443939B6C7721774588A8 (deleted af1f5263402e8cd596c9488e842d9808).def'
p308
aS'1FD5FA41875443939B6C7721774588A8 (deleted d592a5564eda83f842665535fbc14ec8)'
p309
aS'1FD5FA41875443939B6C7721774588A8 (deleted dcdb36304500a5b2c1d97e33197cfc88).def'
p310
aS'1FD5FA41875443939B6C7721774588A8 (deleted eef1530be788ba33c12b08e585534d38)'
p311
aS'1Password (1) (deleted ed9e66e30d89662c55914d174b39290a).html'
p312
aS'1Password (2) (deleted cbdb06fc5a0c176925a5a3d2a848e3cf).html'
p313
aS'1Password (3) (deleted d102e596636858310c766a84c67ac4c6).html'
p314
aS'1Password (4) (deleted 81dd73530f49926b35baea189ee52d3b).html'
p315
aS'1Password (5) (deleted dd6bb88dc77bbe776626e108be16221d).html'
p316
aS'1Password (6) (deleted 7a0aaf5bde806af487bc2f2e20dfb1b4).html'
p317
aS'1Password (7) (deleted 8b004b8e526040d766a83c7ab06154db).html'
p318
aS'1Password (8) (deleted 07b74f25c5cd84cf5b1875541646648d).html'
p319
aS'1Password (deleted 49f4ecb5030d95b682d2652c9687be6e).html'
p320
aS'1Password (deleted 645a5f81fe8933d679349ac9298571c0).html'
p321
aS'1password (deleted 8ef52c6a84c3ff6f13e08bb71b34578b).keys'
p322
aS'1password (deleted b5bcdeb802efc913f1d486825b7af1f7).keys'
p323
aS'20152A006431CA86B3F51703308FAA88 (deleted e25948ca32637bfe6b357d96da742b83).1password'
p324
aS'2398A0EF8B9D4A71AFE20F9CE2585BA4 (deleted 2a79df8439676936374c2b9cb9dc4fa4).1password'
p325
aS'244A6430CA754FCEA2E5F00F3F593BAD (deleted 3efd587fbf7c56be693c9e3b2a7c83c1).1password'
p326
aS'24760B767885451899E4EA925AC6098D (deleted b166752de70dbdb1503aa2b5eb3da563).1password'
p327
aS'24E57CF37587F4046386AE490E46CD95 (deleted 23eba41b8bfe1b94a376481e2d5f9401).1password'
p328
aS'2585D1924213497EA33A8F52E5C71707 (deleted 31582ef8308dbc01a8d23cb6014322eb).1password'
p329
aS'25D52200BCD54D889E807ACC46F0F3CD (deleted 1a35365fe18989aaadfc083af22fe74c).1password'
p330
aS'2627D1EE138994C68717F2D33A2CF3A0 (deleted 20536df5808168217b18a3fde145b9a7).1password'
p331
aS'27ED783197E24DEC84323B56CD1B46F3 (deleted 14f2c0220702c84515e725c3677cffc4).1password'
p332
aS'28A531EFA6624460A9E7F32C78667742 (deleted 12fccc0e98ce39bbfc95548ae9ebcda2).def'
p333
aS'28A531EFA6624460A9E7F32C78667742 (deleted 3542b7f8e5c95614acc871ab4b0e3a16).icn'
p334
aS'28A531EFA6624460A9E7F32C78667742 (deleted 8c8f164843be3407b7e002602ba1f21a)'
p335
aS'28F2F881311B47F4BBA929C053C8B3F4 (deleted 7030b82df362a9f3cc42ff0be5b3b51c).1password'
p336
aS'29402A5419F645E2611E6319D9A4E3B4 (deleted f9f0f34dc9326b316e1d5353a41eaae6).1password'
p337
aS'2954C7D33B93426E85868D4A563619FF (deleted b3d73f3b56f34e7cc57690825f248ccd).1password'
p338
aS'29939C2ECC4D433D8C4B8DD60E83817A (deleted 47b62badb6443bded746e1a2379c814a).1password'
p339
aS'2BB19F19B1D062F59F21261D60FBBBAB (deleted b97a444caf26d3dcda2a5478969f714c).1password'
p340
aS'2BF1DABD3532422F8EC7501390300DE9 (deleted 69f645f1ad7bb8e47eb4bfa7fc73eefb).1password'
p341
aS'2CC6E30B1947F5751ACA419F52A4C222 (deleted 8c7a8cb90a9167c3b2fc753ab16e1ede).1password'
p342
aS'2EBC55E9F952FF45E4C1E52CE8DAC570 (deleted 050aaa5dcfefa14ae0f720380385127b).1password'
p343
aS'2FE38533D17494DF7EFBA39F0936047A (deleted e2e4caa0a657bda2cc22589ad96a01e4).1password'
p344
aS'3023320D69D3603EC2B6E95A36CA9E89 (deleted 746b6ea4c080df9f0c9fd311d161b883).1password'
p345
aS'3239E9243594E7A5132DF3F736F11636 (deleted 340817602692b182551c10b0c546e536).1password'
p346
aS'3381C1C2AB2A4C01B8F71D988F08F8EE (deleted 760409e4ef5d570f051c197cc378e252).1password'
p347
aS'354C9A2D28AA40668940AF6FE39F9C18 (deleted 36c1b11fa1b63afa918f8eeefdd49a2a)'
p348
aS'354C9A2D28AA40668940AF6FE39F9C18 (deleted 40aff679ce4a647c8cb1fd5575eae646).def'
p349
aS'354C9A2D28AA40668940AF6FE39F9C18 (deleted 71b65aa5bbd20d2573844256c7f3eb0e).def'
p350
aS'354C9A2D28AA40668940AF6FE39F9C18 (deleted 80781618dee16edcf0c12f9aab01d13a)'
p351
aS'354C9A2D28AA40668940AF6FE39F9C18 (deleted 9008fee1ec5a6f4649ad053b9c1c0630)'
p352
aS'354C9A2D28AA40668940AF6FE39F9C18 (deleted 96302400be6afc65acdcd319f5c9471e).1password'
p353
aS'354C9A2D28AA40668940AF6FE39F9C18 (deleted d1cc42fbbda734582564ed558ef6fb17).def'
p354
aS'366456DE3973D9D087D5B8B0CFF5FCCB (deleted f1a6081948007278875740c0ff6072ae).1password'
p355
aS'368F1DEDD9A5ACBD7DC9B7B91244012D (deleted 246f11c45cef8488c4e6854033ad8d2c).1password'
p356
aS'3C97D8D88C9A7170520A85E4DBD294AE (deleted a4e0932f6b3b48cb4979a870af8b3af2).1password'
p357
aS'3D3658C616B9E6553162EED40956A62F (deleted a000315861b8f7c380f268c119871752).1password'
p358
aS'451E60F2BED07428B722841EA96054B2 (deleted d4d351140bfc1ae1c517fbc82fd60ccc).1password'
p359
aS'46C1215BACD7E37BFA83D815CDBE5EF4 (deleted 471d35ccd5f05f30ae75dc545f169309).1password'
p360
aS'46C1215BACD7E37BFA83D815CDBE5EF4 (deleted aec8842f4a42ed78178684f8d5ba2a06)'
p361
aS'46C1215BACD7E37BFA83D815CDBE5EF4 (deleted bb36de39278a498ad060cf246cd60874).def'
p362
aS'488D295344C4121AB9F6DC0BF909233B (deleted cd2151621b5caf86ada8fc3b4474ac3b).1password'
p363
aS'4BE63734AD8745ACAB3AFDED16062CE6 (deleted c526f893863e3d590f961e3c3417d144).1password'
p364
aS'4CEEB6400EDC4B6E982F942A70937ACF (deleted c9c7b63c022f3db31d80b976deeed2e2).1password'
p365
aS'4E4D901EB3424DCFBF3FCD43E1B62C7F (deleted 47a459703f795c1be912cb469bef56cd).1password'
p366
aS'4EBFA9ECDF684AF2B169B09E6B7B4D7A (deleted b22dea5995b9e274a8e81afa745f811d).1password'
p367
aS'5131E7B41FAFA739C6480AFFC1B00BB2 (deleted b184a1877e3141f7c0e92325c2983368).1password'
p368
aS'5344204F9D8E0F107ADBEA7EC2ED0656 (deleted d98d72b25c46e522918d605272989b31).1password'
p369
aS'53D1779801734DEA880E31FB0EB9E2AE (deleted b9f44a63cbcc8acea1cc662a34857f1e).1password'
p370
aS'54959A4AA96A4B2485D8D6AA12B411B3 (deleted 8237e288b610b671487c9b33eec63066).1password'
p371
aS'55A02184F8B648E4B37C22D29CB932BD (deleted 7bb05d8ec19a22c712d220be997f9ab1).1password'
p372
aS'575C6427D1614C3AA486AC6CFF68E56B (deleted a8dc2b0787382fe12ba2bcce8b41994b).1password'
p373
aS'5B94BDFC9B8945228107796BF36E6CA0 (deleted a09229477e4b6ccd69569f93ec2c15e7).1password'
p374
aS'605E1F390CFD488F95D63B86F84C2515 (deleted ae0f53beb7195ea40d1f6c09413acc00).1password'
p375
aS'61CA1AE9753447BB8BB8CD7548A24986 (deleted 3ef1687c36ce04304fc652b3ee3b50e8).1password'
p376
aS'622249551A934DBE837807B5A81F214C (deleted d1d35c43f2b6d2ed427795ecf7977d1b).1password'
p377
aS'66BF9989E0944783B9CF2ED7293415C5 (deleted 5ddbddc02922c687bf8e46d6cfedacde).1password'
p378
aS'67E5228DDAD8429CAD9ADFBA225EB54E (deleted c427e42a78d87f1e7c3cf0d492400ad7).1password'
p379
aS'67F9ED8EAE1F48619FCBC02DB5A54733 (deleted 01c2322801341faa987b99d4771bfc13).1password'
p380
aS'6D1C412DA4AC47498F50F2B185E3D435 (deleted 60d5c31f8eebd2c519a620bfbbd85d42)'
p381
aS'6D1C412DA4AC47498F50F2B185E3D435 (deleted 6a3d80ad7041861d99a24f995a2ff0f9).1password'
p382
aS'6D1C412DA4AC47498F50F2B185E3D435 (deleted 788363c39a56d984323d7bd71743f655).def'
p383
aS'6D1C412DA4AC47498F50F2B185E3D435 (deleted 7c24d824ddaa2292470b17a0e956d6d9)'
p384
aS'6D1C412DA4AC47498F50F2B185E3D435 (deleted cc85309eb8cacaab8137167b50bf8a83).def'
p385
aS'6D1C412DA4AC47498F50F2B185E3D435 (deleted d2615fb63a4a01be978d90d9051f24d8).def'
p386
aS'6D1C412DA4AC47498F50F2B185E3D435 (deleted fd081436bec33d9a1abf395b35f71764)'
p387
aS'6D4630E82B8446FEB1FA973AAC6C4EF1 (deleted a86691fcdfdc06791e08fa4f30ac3984).1password'
p388
aS'6D9F63395804575D1D2D5A08E7A2D5F4 (deleted 40fc182b97e0c8f639e22e59845bd793).1password'
p389
aS'6DEC6EDB1FB9C091D6304D47898EE0D4 (deleted 9385963a5fe0671d3fd3d7c335afc0e5).1password'
p390
aS'700DA95C60F2A53D4C05134D1FC46AA6 (deleted 8d6d8e5867f6d06105441f336f165ee9).1password'
p391
aS'7019F848C7F8417CAE249D328A2B5845 (deleted 5465dc0f48fc276867f9b535c4375573).def'
p392
aS'7019F848C7F8417CAE249D328A2B5845 (deleted 644639fe386066f46a7bdb079c1b4a59).icn'
p393
aS'7019F848C7F8417CAE249D328A2B5845 (deleted bd97a2801268e278c83f259c38e3ba24)'
p394
aS'7111E280CCFF48E6B7D2900662EA37C8 (deleted 4e6c5b2d7bbe5ad90c33df11e98bc228).1password'
p395
aS'731F956B7F94AC265C4DD91CD297ABD8 (deleted c748d3bc5ab98198e9c5271bb148b203).1password'
p396
aS'76FB85A037BDC6E3B2661D3390EF50A1 (deleted 37a94b553fcb30d15ce6bdd5c63019dd).def'
p397
aS'76FB85A037BDC6E3B2661D3390EF50A1 (deleted 5c2f8725d0fdd9e03d1ec958d460f631).1password'
p398
aS'76FB85A037BDC6E3B2661D3390EF50A1 (deleted ba7f3a273fbad02602c59d873e87b060)'
p399
aS'79DBFF7F38D64911B22BF3CC73EE753F (deleted 6253d9eafb106047ebda282973f8364e).1password'
p400
aS'7A210F8B72C947658C646BB70AEC0B43 (deleted c4af4238896242fa3eb29816c2772c78).1password'
p401
aS'7B4979AEB08B25704CFB03CC439F8B27 (deleted 88921121fb8f17ea0dbf36b925c91776).1password'
p402
aS'7C776B4245F6D5D5B9C721A9B0264306 (deleted 884bc432874bf5112258939bee97ecd0).1password'
p403
aS'7CD75E7755AD0486ED015BD210D5C904 (deleted 05f17c8bdd111e608e6a7d551bcb2499).1password'
p404
aS'819AE4A64CBE6C86B31C9F449F54EC2B (deleted b01b6b61ba894e973640464fad81cdda).1password'
p405
aS'8241284E330949FDB2582862B52747A3 (deleted cf3f402a56fb379efdc7a42ab155a6b6).1password'
p406
aS'82E7282861D2557BDEF730BF8030BD56 (deleted dbf4b734123a7cbba117278b01949d2e).1password'
p407
aS'8362FFAA5F644102BAA9E093CFE3328B (deleted 5a56cd33a33d9f193379843a7ef89c9d).1password'
p408
aS'868C0C69AB1842C0912E3A9CE18030B8 (deleted 5bc12ec9e7bb40f222f4f85910e98e60)'
p409
aS'868C0C69AB1842C0912E3A9CE18030B8 (deleted 7ed85e35eeed36f2a99065a5c8f53f68)'
p410
aS'868C0C69AB1842C0912E3A9CE18030B8 (deleted 8cfb6afe0cdee58516ad16e3695e391e)'
p411
aS'868C0C69AB1842C0912E3A9CE18030B8 (deleted 97eaaa1aa993a745f05d075bd29fdddc).def'
p412
aS'868C0C69AB1842C0912E3A9CE18030B8 (deleted 9dbb76460944e102e8facd4d362978a7).def'
p413
aS'868C0C69AB1842C0912E3A9CE18030B8 (deleted a0dc26c31ae81fb6d83dcfab2b1da8b5).1password'
p414
aS'868C0C69AB1842C0912E3A9CE18030B8 (deleted b68597c54a23dd598e71e5638e4186e8).def'
p415
aS'876D530F7CF34F0DAE38B7C119426B6E (deleted 925a156bec79c919d7f28918366357a6).1password'
p416
aS'895E0C3C546940FDA0C66D66656AB2D6 (deleted a6594f90e4598e0057c93ed4e0eb1221).1password'
p417
aS'8984DDE832A5FBDD791DD7B368605261 (deleted 12c006afaf4d504e50b1beacec4b252a).1password'
p418
aS'8EBFCD02B567ACFA997DAD766C11C3AE (deleted 33fdad974e704078334fc19fcd605ea1).1password'
p419
aS'8F3E11890792793DB53F2713B6F911F1 (deleted f5e386710bb1ff346c676ee3e0ac2668).1password'
p420
aS'8F7E89D9A6DC46E58966196F043FE189 (deleted 34d5046e437fd5151c7a42be2e802b7e).1password'
p421
aS'907EBAAA0F8D4D5B833CA8D0B60040C5 (deleted 04a58039aef24e82526bb4bffef37dec)'
p422
aS'907EBAAA0F8D4D5B833CA8D0B60040C5 (deleted 8ebd5a34c3d340dda035cf46f038f880).1password'
p423
aS'907EBAAA0F8D4D5B833CA8D0B60040C5 (deleted a16d4665fcc20519e32f1fd486d325d5)'
p424
aS'907EBAAA0F8D4D5B833CA8D0B60040C5 (deleted a182f292adc85d01fcc60989862052cc)'
p425
aS'907EBAAA0F8D4D5B833CA8D0B60040C5 (deleted e4651bb365cb93ef924ed38f4cc29105).def'
p426
aS'907EBAAA0F8D4D5B833CA8D0B60040C5 (deleted e88647ea8ef234f2f511db4dc2cadc0a).def'
p427
aS'907EBAAA0F8D4D5B833CA8D0B60040C5 (deleted ffe1e383e52bd81644d916891b8fc1d5).def'
p428
aS'9080040BF92A3E335B34199817B66B41 (deleted 754aac1eb56352cea2d228c1666d2b9a).1password'
p429
aS'91F4977BA33143B6AAAFD5174125E539 (deleted 804282a25ae2c1926fb706f36a392c25).1password'
p430
aS'94EBDCAAEC3E4335B6848C70A2E6501E (deleted 8d4b071a777a385ce2f560378b1e3c8c).1password'
p431
aS'961C33378B51AB4A6171A3D480ADC9A1 (deleted 51f2d7d221049909103875bab9701f6d).1password'
p432
aS'96FAF0187E794E4A888D6EE5DE442B2A (deleted 6a35e374c37c78e9abc20c486eb6ec36).1password'
p433
aS'98AD1CDE601A458589C4FDC70B741662 (deleted 16a436bb5d863bfae9bec1da1bb8fdc0).1password'
p434
aS'98D775C2C8334EF7BDD616E7AF02FB9A (deleted d4d3528b32a28c3a3cce65a98b6e6bf9).1password'
p435
aS'9970544AA6A040B780911E143CC37D17 (deleted 39ef4b336ffc107ea72674150acec779).def'
p436
aS'9970544AA6A040B780911E143CC37D17 (deleted 87ef644eba1f5c1509e6a58ad9d09ccb).def'
p437
aS'9970544AA6A040B780911E143CC37D17 (deleted 9631ad4b01d376d519ccafa9fd0daa5b).1password'
p438
aS'9970544AA6A040B780911E143CC37D17 (deleted a19c8f7e84a26d751d2ac84af5fc1a05)'
p439
aS'9970544AA6A040B780911E143CC37D17 (deleted c873dcf77a6824fe42b547b18185b33d)'
p440
aS'9970544AA6A040B780911E143CC37D17 (deleted d6bc35bee1b8f03a0f4eda8c87aa83d6).def'
p441
aS'9970544AA6A040B780911E143CC37D17 (deleted f345eb25afc9bd09dfe02d4968cf4c64)'
p442
aS'99EAF27574DF72A96D56751DA8DF2EC8 (deleted 16caaf956e62df142b5f1f5ce1bbdfbc).def'
p443
aS'99EAF27574DF72A96D56751DA8DF2EC8 (deleted 8f03c6be099b86fd242abb52a7f9efcd)'
p444
aS'99EAF27574DF72A96D56751DA8DF2EC8 (deleted b6c8a1a7ab8b25294b73c376d1b6d044)'
p445
aS'99EAF27574DF72A96D56751DA8DF2EC8 (deleted e5e1cd8a98fc9b4563eba93d0e3c0227).1password'
p446
aS'99EAF27574DF72A96D56751DA8DF2EC8 (deleted fc78be5a072fa666af8900e776b0ff38).def'
p447
aS'9BB2A5D2769A70E82AD7C66B750EF26C (deleted 025c64ac026e9f36fd3b65f7742e3ef1).1password'
p448
aS'9BE2A4E5C14131B1C7BA6DA5DB262DB0 (deleted c6de6ada2ca0e947a1d8cfc12a812585).1password'
p449
aS'9C7A5F90F22D4D008759AE21BB59B342 (deleted 3b66cb1764360cbc321a7286b8df1c41).1password'
p450
aS'9D546D6F720F424D8EF2E498B154B34F (deleted 06d0df1508559db16da30db8804a7682).1password'
p451
aS'9EED4EEBF4B083784DF0A35FA034D36E (deleted dcaf0a45430e4753a033ad7723e2b001).1password'
p452
aS'9F8A53D4A5734050B2E5C9EE3AD4000A (deleted b5887fd8e510dd6ea0884a86314cdea6).1password'
p453
aS'A16569460E24454DB2BEE73FE2CE43C7 (deleted 17f355647bf2cf70b326c30520b5a22e).def'
p454
aS'A16569460E24454DB2BEE73FE2CE43C7 (deleted 18523f3ac8c5725afbca2a635dff0b1d)'
p455
aS'A16569460E24454DB2BEE73FE2CE43C7 (deleted 4042cdaf8f31d3c317d32ce348df032e).1password'
p456
aS'A16569460E24454DB2BEE73FE2CE43C7 (deleted 774a22bdb1978ef7179bfc06bb1597ab)'
p457
aS'A16569460E24454DB2BEE73FE2CE43C7 (deleted 8cc279e474f402cada3ebca4cf820f96)'
p458
aS'A16569460E24454DB2BEE73FE2CE43C7 (deleted de9539e3ab0fecb7137161f24c2797ec).def'
p459
aS'A16569460E24454DB2BEE73FE2CE43C7 (deleted f26ef82323376da53dc7902cbfa88fc4).def'
p460
aS'A1A4240B87A74F7A9A0E974656EB4298 (deleted 9a38d266c563db13840ff44a1e20e96f).1password'
p461
aS'A2002D1CD341773AE4A931D7DB3D2755 (deleted 8cafc054b93a3ead981489eee54befcb).1password'
p462
aS'A253A4892C3F4AB1BE9ED3FFE4C5D026 (deleted 79ee1f60975539af69e167172a3dd53c).1password'
p463
aS'A284179B0D134EA6B5443E0B01331F0B (deleted 1650393c90386fbc02a4073d279c4f82).1password'
p464
aS'A32E0BA4CCBD4C56B641A83C9BA8A263 (deleted af52d5562555c2482739621664c3995c).icn'
p465
aS'A32E0BA4CCBD4C56B641A83C9BA8A263 (deleted e8009f862ef7dc975ad970ac6ad06a30).def'
p466
aS'A32E0BA4CCBD4C56B641A83C9BA8A263 (deleted ec75b050a99d2a340ea3d0ef21b787eb)'
p467
aS'A629F1EBC0FA48A59AF0D0B1336ABC79 (deleted 7401fffc9aec6f2d13a0e87f9e130d54).1password'
p468
aS'A94F7A8C0E9196BB8FC50262E40127C1 (deleted 53eed6a7a8e41a1e80a970a55914152a).1password'
p469
aS'A96234B5EFC0904F1266590C59C5028E (deleted 3921206d6721336fcd44f73dc8b3bba0).1password'
p470
aS'A9D1CA5135D45E132A73CD6D279CBB19 (deleted bbca3e9e81fe0462424fee025c0ed9bb).1password'
p471
aS'AAC550B2222F4D1892652EB39AB440E1 (deleted 2336f2857c1df6783aee5955348a0f94).1password'
p472
aS'ABC10FB4271DABD6841411F48C7095EC (deleted 1e87d8fedb2718de6bc78793a5f89e2f).1password'
p473
aS'active8 (deleted a1d02779b566992abd1c89b5153cd8ad).dump'
p474
aS'AEFDA168AB6244FC9F0B43A60D8F0381 (deleted 7c7e402a0b6cb51dc7ab674fb3e81f67).1password'
p475
aS'B32A1EF7037AE87E7494AA26024F223D (deleted 9c3b35bbae744e28790df6ddacfa6a13).1password'
p476
aS'B5ECEC22CADB69610907EB49E3E252B5 (deleted 35691b9ef15f3f50cd032590201dd7f3).1password'
p477
aS'B8548B003AB450F793E5B846D3EA6F86 (deleted e6a51e55a4b3fb47b4984c2036f8f981).1password'
p478
aS'B961CC9C56D0585654A94EC1CAAD3489 (deleted 3872ffd029618414ceade767ad44cfc5).1password'
p479
aS'BC8FC904260645DE99EE82F9990B2180 (deleted 1fd510218042d64dcf79fa877418d004)'
p480
aS'BC8FC904260645DE99EE82F9990B2180 (deleted 6e64883ba3d670469dcc67bda53293b7)'
p481
aS'BC8FC904260645DE99EE82F9990B2180 (deleted 6e793df9b06222cd0a1746b3a7275f7b).def'
p482
aS'BC8FC904260645DE99EE82F9990B2180 (deleted 7dbc63728aaa83e6347604c7e142eae2).def'
p483
aS'BC8FC904260645DE99EE82F9990B2180 (deleted 8537bbbe53ab81cc5f0e158f870b5bbb).1password'
p484
aS'BC8FC904260645DE99EE82F9990B2180 (deleted cc97bc16fa2f090eeb3b63b17c7bb82d).def'
p485
aS'BC8FC904260645DE99EE82F9990B2180 (deleted f167d64fa429863cade58c70c010354f)'
p486
aS'BDC73BB778124FDAA6311F69E0A1A475 (deleted 977f50cf545a464d21773923f3a097fe).1password'
p487
aS'BF4B0B1FCF8DA94D2933CCD789F46331 (deleted 406600c857dcddfc80d6b528857797cf).1password'
p488
aS'buildnum (deleted 23323de10b930caa52d3827fd7561578)'
p489
aS'C159F2F126274896A3DE035EC960DDBF (deleted 92be554973c62d37a18ce7080d1e8fdb).1password'
p490
aS'C400B96C166E238A46A245C4DAAC778E (deleted 1b4935774aa4bb2436ec8e58e1b1784c).1password'
p491
aS'C416D435743E9811FC0680D5E5B2F43D (deleted 7361b710525436a2e1db98641e1ff9e4).1password'
p492
aS'C4D184DC2AA544AEBDB396038C585782 (deleted 6b316e3f836b8eaba15f85a830af69a6).1password'
p493
aS'C4DFE3B41B561BDAE78BDDFE5D5B1D77 (deleted e024382cf184b248a35abd90d54ceba5).1password'
p494
aS'C6537FB7F8F49FC7CE5E7AA305B6CC54 (deleted 057476f7a1af24ef2e9b851d197483bf).1password'
p495
aS'C81E44C85BE3AB0BC35782D07A5E0CB6 (deleted 022b94a098bf7d87dab1b78a7cbf1b61).1password'
p496
aS'CA577271788441D2932FA5C8804B0D19 (deleted 475ba2ce26b900b36b38d36eb96c9fef)'
p497
aS'CA577271788441D2932FA5C8804B0D19 (deleted c9898aa9bc1b9b82a58db6184a956ae9).def'
p498
aS'CA577271788441D2932FA5C8804B0D19 (deleted f0a959010871f2e671c6e5da972b1b27).icn'
p499
aS'CA84BECE14AE9AAFAB147AF5C717A440 (deleted c299ebcaa2b8f025549a8d5910a856b1).1password'
p500
aS'CB60C8ED131F456995F9CA7A146846B7 (deleted d6b688725d5696a2109c09e2852bf191).1password'
p501
aS'CD3EE8B99D1912ADBD72922F810A47E2 (deleted 1bae45a8f209326377a1490c9b0365a5).1password'
p502
aS'CEB0DA0213A2FA9449BC2047838F115E (deleted 55c16226f60bb6c2e8f4823ddaa6c6a4).1password'
p503
aS'contents (deleted 15fc6d3ca3318b193a6fb11b8cb82707).js'
p504
aS'D555FB3315124588B7DB15DAC677C853 (deleted 3badbc9c546be40e2e5e494a27d2203f).1password'
p505
aS'D55B9F71B805F3367117210564D33AC8 (deleted a4adc73627685ef333b040ce97a26742).1password'
p506
aS'D56DD00107304DF9922B7C99C7CAE039 (deleted 351d46df64636aaa8182a9af351d38f4).1password'
p507
aS'D6A2FDC7467E0DE9FE1E860798887675 (deleted a6c4bd30a5a4f165248049f4a9ecef54).1password'
p508
aS'D819E34915A14240B84E696C91EEC6E5 (deleted 852b1fd475c8fb4214e5b11c355dbabb).1password'
p509
aS'D8E6FBA2935E430F848545CD4A3119DD (deleted 282e864a04ba025d5237caa884d0e5d3).1password'
p510
aS'D90118BFAE9249FA864E5E63A0A5FEB6 (deleted 5a6447d574fab1a711f15efa8b11f34e).1password'
p511
aS'D90B53ED5E5345CC91AA67A88C150147 (deleted 151180da5c9de126058e538ab2899f25).1password'
p512
aS'D90B53ED5E5345CC91AA67A88C150147 (deleted 3d7fa4ee580a2395c27b187c1b222a0a)'
p513
aS'D90B53ED5E5345CC91AA67A88C150147 (deleted 656a2838c2035caa55f4481226f081a0).def'
p514
aS'D90B53ED5E5345CC91AA67A88C150147 (deleted 98c4bacb0fc5309123ecf111678f1a09).def'
p515
aS'D90B53ED5E5345CC91AA67A88C150147 (deleted a77762a428f63d45d0da2c0cb14a7caf)'
p516
aS'D90B53ED5E5345CC91AA67A88C150147 (deleted b86bd123e08fccade2fcd054267a9dbd)'
p517
aS'D90B53ED5E5345CC91AA67A88C150147 (deleted cee856d5cd509f7915d56f8daa3dcfc2).def'
p518
aS'DA9D54A631E2B268ED785AFE718C24AA (deleted 92d61bfd4d2c56953b99c3167ca481a1).1password'
p519
aS'DB60B25641C55CADEAE560B5DF417CAD (deleted c2d7e9f5ada0ebbe2579abe341d7a6aa).1password'
p520
aS'DBEDC7EC9DA14F2880C75D630FBF9FF9 (deleted 4be4e2f14b9c4aa8cad9a971952206ef).1password'
p521
aS'DE938F62D51FD393CA86F6B31A62E32B (deleted 1767c0c7f9c24d9dcc1d67cdb07b2a1c).def'
p522
aS'DE938F62D51FD393CA86F6B31A62E32B (deleted 6386ad6ad0d63c126b39ae274c815e62).1password'
p523
aS'DE938F62D51FD393CA86F6B31A62E32B (deleted a3728165774a86f57eac3793f348a5c0)'
p524
aS'E0427D1E184B00A0BB6B1EDE6688249B (deleted e3cf4169a865f42f5235f8bc3f8cf44c).1password'
p525
aS'E179D457380F4491B5DDA297D2568272 (deleted 44e47c206f5be89783d6c86ce6346198).1password'
p526
aS'E22D7976C3F041AD8320AF5D3D6EA50D (deleted 904c6f65f341a061a66c0b5d04667a3e).1password'
p527
aS'E2A971E8CCEB493E9206A294BD7DA933 (deleted 0f41b9e65930d3ae7302abf6d95197d8).1password'
p528
aS'E2E07E8F2F854759AB0BD86EB5F1414D (deleted 9807160e0a7754b21304ba8590b2cc60).1password'
p529
aS'E4DE0BDC5846409BBAD304FBAA382729 (deleted 807ea472a325d9c5d66b88beaf79aa56).1password'
p530
aS'E7155E8046D3468585288F1DC24FDE76 (deleted 809b6a44e5070b5d54e330d11b5e2c01).1password'
p531
aS'EADA495585444EBBBFBE1FD1ACD54103 (deleted 9e9a983987aa4bc1da9723446f7d19c0).1password'
p532
aS'EB7E407513654CD1B0E48B3F175D34E0 (deleted 8b716fd8b51f5848ec37009768f472a3).1password'
p533
aS'EE97B9097E6048798D2700453DACA46E (deleted caf1e7a8ba49865533c934d194500378).1password'
p534
aS'EED8421D20C4146878D9E29BD05D9CD3 (deleted 28c86654c23c7f53fa32aaeffb79a779).1password'
p535
aS'encryptionKeys (deleted 2982181da12d9531549684b64752c216).js'
p536
aS'encryptionKeys (deleted c14e40084dac3733ef02af85b98db4d4).js'
p537
aS'F1F0BB168B437ECC1B0F45A9D60D8C72 (deleted 90c66c4f0c2e393de09da4b7fbda630d).1password'
p538
aS'F3343AD1E366A05C9B34231F012CC14F (deleted 9dd84a609c7b8d77519e5ea9e9652109).1password'
p539
aS'F395A5BD627E4127919DB1D4A8B89D7D (deleted 4af38d3c401ee91cfd8be218c52a0d41).1password'
p540
aS'F44FD36C3F094A9D8F8D64F6AD115166 (deleted 4d189b74eb91e863f7a6c4d959d59937).1password'
p541
aS'F4563A6F6CE74EAEF04DF9D545E2B161 (deleted 7551b1b9f7c8cad5324ff3d625063db9).1password'
p542
aS'F5F0FC10D5D24139ADBB99A1E0B1AD0B (deleted 87e57526a33694290c50b1ea91b7d6c8).1password'
p543
aS'F69C2A7B808A97FD5A0B2D9017231AE8 (deleted 6eea9fc7c35d46cb3e808aedc2ab33b7).1password'
p544
aS'F768384F2AB33016ABCACEA5859938D4 (deleted c7a9bce4aa1121c31bce3e814b4a2a66).1password'
p545
aS'F79E5B6CF3B34FE7B105E196D0D5078B (deleted a30e9e38b9955080192af604342edd95).1password'
p546
aS'FC3E98ACA73C4D0CBF8A525F182353C5 (deleted 13fbeb77550773e97c20e19c9a396a18).1password'
p547
aS'FD6CC5E7A5C34E55BDCDED08F280A339 (deleted 5483d80562de3a5a12c8d534a903e9f9)'
p548
aS'FD6CC5E7A5C34E55BDCDED08F280A339 (deleted cf975f3d2f09616d5566446462037896).def'
p549
aS'FD6CC5E7A5C34E55BDCDED08F280A339 (deleted f3b66f6b2baba532aa91a16bf357b58c).icn'
p550
aS'newsletter (deleted d7be172692ac9cb0a637999cb68946a3)'
p551
aS'rmij (deleted 27729d174a482ff70fd108e78e39d421).dump'
p552
aS'test (deleted aa00c0487a80ad050626d7c725face7e).dump'
p553
asS'dirnamehash'
p554
g2
ssS'3cf5660931cd5f217bacf7b8daf8ba8e2d92098b'
p555
(dp556
g4
S'9f5279b0f4536724d28715d66d0b0478156b37e4'
p557
sg6
S'/Users/rabshakeh/Cryptobox2/.dropbox.cache'
p558
sg8
(lp559
S'.DS_Store'
p560
aS'2013-05-25'
p561
aS'2013-05-26'
p562
aS'2013-05-27'
p563
asg281
(lp564
S'.DS_Store'
p565
asg554
g555
ssS'3181f6242839b496da2603ffb33676a5bf901d49'
p566
(dp567
g4
S'35c5c5e39b5af562383047ceb7da05fb43c41777'
p568
sg6
S'/Users/rabshakeh/Cryptobox2/.dropbox.cache/2013-05-27'
p569
sg8
(lp570
S'active8 (deleted 561a4a9a77a624325138bf859abf1e7b).dump'
p571
aS'rmij (deleted 0594f87bcf1f6cdc27811dd73477ba20).dump'
p572
aS'test (deleted c7a7426d6cc2f1ec2a38423850d7e56f).dump'
p573
asg281
(lp574
S'active8 (deleted 561a4a9a77a624325138bf859abf1e7b).dump'
p575
aS'rmij (deleted 0594f87bcf1f6cdc27811dd73477ba20).dump'
p576
aS'test (deleted c7a7426d6cc2f1ec2a38423850d7e56f).dump'
p577
asg554
g566
ssS'46680815feef6b0249cc0425799a083ec67859d0'
p578
(dp579
g4
S'7f07526a2195adc175fca14a39fa3c93ad12df25'
p580
sg6
S'/Users/rabshakeh/Cryptobox2/.dropbox.cache/2013-05-26'
p581
sg8
(lp582
S'active8 (deleted 0ab46b564363a06e078d191a1fff85f4).dump'
p583
aS'rmij (deleted cd1e54bc636eabd4c6c2a6549e5bc220).dump'
p584
aS'test (deleted 77c341e4d71dc69ab8d0790f866e2b6d).dump'
p585
asg281
(lp586
S'active8 (deleted 0ab46b564363a06e078d191a1fff85f4).dump'
p587
aS'rmij (deleted cd1e54bc636eabd4c6c2a6549e5bc220).dump'
p588
aS'test (deleted 77c341e4d71dc69ab8d0790f866e2b6d).dump'
p589
asg554
g578
ssS'68b3a930c82359e175cd5b9e8ed75570e3e18e96'
p590
(dp591
g4
S'fc9a0b2b37de0cf9f0eb4dfe5e69580a6566c634'
p592
sg6
S'/Users/rabshakeh/Cryptobox2/'
p593
sg8
(lp594
S'.dropbox.cache'
p595
asg281
(lp596
sg554
g590
ss.